; Function Attrs: nounwind uwtable
define zeroext range(i8 0, 2) i8 @Java_sun_awt_X11_XlibWrapper_XShapeQueryExtension(ptr nocapture noundef readnone %0, ptr nocapture noundef readnone %1, i64 noundef %2, i64 noundef %3, i64 noundef %4) local_unnamed_addr #0 {
  %6 = inttoptr i64 %2 to ptr
  %7 = inttoptr i64 %3 to ptr
  %8 = inttoptr i64 %4 to ptr
  %9 = tail call i32 @XShapeQueryExtension(ptr noundef %6, ptr noundef %7, ptr noundef %8) #14
  %.not = icmp ne i32 %9, 0
  %10 = zext i1 %.not to i8
  ret i8 %10
}